target datalayout = "e-m:e-p270:32:32-p271:32:32-p272:64:64-i64:64-i128:128-f80:128-n8:16:32:64-S128"
target triple = "x86_64-pc-linux-gnu"

%struct.evthread_lock_callbacks = type { i32, i32, ptr, ptr, ptr, ptr }
%struct.timeval = type { i64, i64 }
%struct.bufferevent_private = type { %struct.bufferevent, ptr, i8, i16, i16, i16, i32, i32, %struct.event_callback, i32, i32, ptr, i64, i64, ptr, %union.anon.7, ptr }
%struct.bufferevent = type { ptr, ptr, %struct.event, %struct.event, ptr, ptr, %struct.event_watermark, %struct.event_watermark, ptr, ptr, ptr, ptr, %struct.timeval, %struct.timeval, i16 }
%struct.event = type { %struct.event_callback, %union.anon.0, i32, i16, i16, ptr, %union.anon.2, %struct.timeval }
%union.anon.0 = type { %struct.anon.1 }
%struct.anon.1 = type { ptr, ptr }
%union.anon.2 = type { %struct.anon.3 }
%struct.anon.3 = type { %struct.anon.4, %struct.timeval }
%struct.anon.4 = type { ptr, ptr }
%struct.event_watermark = type { i64, i64 }
%struct.event_callback = type { %struct.anon, i16, i8, i8, %union.anon, ptr }
%struct.anon = type { ptr, ptr }
%union.anon = type { ptr }
%union.anon.7 = type { %struct.sockaddr_in6 }
%struct.sockaddr_in6 = type { i16, i16, i32, %struct.in6_addr, i32 }
%struct.in6_addr = type { %union.anon.8 }
%union.anon.8 = type { [4 x i32] }

@evthread_lock_fns_ = external global %struct.evthread_lock_callbacks, align 8

; Function Attrs: nounwind uwtable
define i32 @bufferevent_set_max_single_read(ptr noundef %0, i64 noundef %1) #0 {
  %3 = alloca ptr, align 8
  %4 = alloca i64, align 8
  %5 = alloca ptr, align 8
  %6 = alloca i32, align 4
  %7 = alloca ptr, align 8
  %8 = alloca ptr, align 8
  store ptr %0, ptr %3, align 8
  store i64 %1, ptr %4, align 8
  call void @llvm.lifetime.start.p0(i64 8, ptr %5) #5
  call void @llvm.lifetime.start.p0(i64 4, ptr %6) #5
  store i32 0, ptr %6, align 4
  br label %9

9:                                                ; preds = %2
  call void @llvm.lifetime.start.p0(i64 8, ptr %7) #5
  %10 = load ptr, ptr %3, align 8
  %11 = getelementptr inbounds i8, ptr %10, i64 0
  store ptr %11, ptr %7, align 8
  br label %12

12:                                               ; preds = %9
  %13 = load ptr, ptr %7, align 8
  %14 = getelementptr inbounds nuw %struct.bufferevent_private, ptr %13, i32 0, i32 11
  %15 = load ptr, ptr %14, align 8
  %16 = icmp ne ptr %15, null
  br i1 %16, label %17, label %23

17:                                               ; preds = %12
  %18 = load ptr, ptr getelementptr inbounds nuw (%struct.evthread_lock_callbacks, ptr @evthread_lock_fns_, i32 0, i32 4), align 8
  %19 = load ptr, ptr %7, align 8
  %20 = getelementptr inbounds nuw %struct.bufferevent_private, ptr %19, i32 0, i32 11
  %21 = load ptr, ptr %20, align 8
  %22 = call i32 %18(i32 noundef 0, ptr noundef %21)
  br label %23

23:                                               ; preds = %17, %12
  br label %24

24:                                               ; preds = %23
  br label %25

25:                                               ; preds = %24
  call void @llvm.lifetime.end.p0(i64 8, ptr %7) #5
  br label %26

26:                                               ; preds = %25
  br label %27

27:                                               ; preds = %26
  %28 = load ptr, ptr %3, align 8
  %29 = getelementptr inbounds i8, ptr %28, i64 0
  store ptr %29, ptr %5, align 8
  %30 = load i64, ptr %4, align 8
  %31 = icmp eq i64 %30, 0
  br i1 %31, label %35, label %32

32:                                               ; preds = %27
  %33 = load i64, ptr %4, align 8
  %34 = icmp ugt i64 %33, 9223372036854775807
  br i1 %34, label %35, label %38

35:                                               ; preds = %32, %27
  %36 = load ptr, ptr %5, align 8
  %37 = getelementptr inbounds nuw %struct.bufferevent_private, ptr %36, i32 0, i32 12
  store i64 16384, ptr %37, align 8
  br label %42

38:                                               ; preds = %32
  %39 = load i64, ptr %4, align 8
  %40 = load ptr, ptr %5, align 8
  %41 = getelementptr inbounds nuw %struct.bufferevent_private, ptr %40, i32 0, i32 12
  store i64 %39, ptr %41, align 8
  br label %42

42:                                               ; preds = %38, %35
  %43 = load ptr, ptr %3, align 8
  %44 = getelementptr inbounds nuw %struct.bufferevent, ptr %43, i32 0, i32 4
  %45 = load ptr, ptr %44, align 8
  %46 = load ptr, ptr %5, align 8
  %47 = getelementptr inbounds nuw %struct.bufferevent_private, ptr %46, i32 0, i32 12
  %48 = load i64, ptr %47, align 8
  %49 = call i32 @evbuffer_set_max_read(ptr noundef %45, i64 noundef %48)
  store i32 %49, ptr %6, align 4
  br label %50

50:                                               ; preds = %42
  call void @llvm.lifetime.start.p0(i64 8, ptr %8) #5
  %51 = load ptr, ptr %3, align 8
  %52 = getelementptr inbounds i8, ptr %51, i64 0
  store ptr %52, ptr %8, align 8
  br label %53

53:                                               ; preds = %50
  %54 = load ptr, ptr %8, align 8
  %55 = getelementptr inbounds nuw %struct.bufferevent_private, ptr %54, i32 0, i32 11
  %56 = load ptr, ptr %55, align 8
  %57 = icmp ne ptr %56, null
  br i1 %57, label %58, label %64

58:                                               ; preds = %53
  %59 = load ptr, ptr getelementptr inbounds nuw (%struct.evthread_lock_callbacks, ptr @evthread_lock_fns_, i32 0, i32 5), align 8
  %60 = load ptr, ptr %8, align 8
  %61 = getelementptr inbounds nuw %struct.bufferevent_private, ptr %60, i32 0, i32 11
  %62 = load ptr, ptr %61, align 8
  %63 = call i32 %59(i32 noundef 0, ptr noundef %62)
  br label %64

64:                                               ; preds = %58, %53
  br label %65

65:                                               ; preds = %64
  br label %66

66:                                               ; preds = %65
  call void @llvm.lifetime.end.p0(i64 8, ptr %8) #5
  br label %67

67:                                               ; preds = %66
  br label %68

68:                                               ; preds = %67
  %69 = load i32, ptr %6, align 4
  call void @llvm.lifetime.end.p0(i64 4, ptr %6) #5
  call void @llvm.lifetime.end.p0(i64 8, ptr %5) #5
  ret i32 %69
}