; Function Attrs: nounwind uwtable
define i32 @bufferevent_set_max_single_read(ptr noundef captures(none) initializes((456, 464)) %0, i64 noundef %1) local_unnamed_addr #3 {
  %3 = getelementptr inbounds nuw i8, ptr %0, i64 448
  %4 = load ptr, ptr %3, align 8
  %.not = icmp eq ptr %4, null
  br i1 %.not, label %8, label %5

5:                                                ; preds = %2
  %6 = load ptr, ptr getelementptr inbounds nuw (i8, ptr @evthread_lock_fns_, i64 24), align 8
  %7 = tail call i32 %6(i32 noundef 0, ptr noundef nonnull %4) #10
  br label %8

8:                                                ; preds = %5, %2
  %or.cond = icmp slt i64 %1, 1
  %spec.select = select i1 %or.cond, i64 16384, i64 %1
  %9 = getelementptr inbounds nuw i8, ptr %0, i64 456
  store i64 %spec.select, ptr %9, align 8
  %10 = getelementptr inbounds nuw i8, ptr %0, i64 256
  %11 = load ptr, ptr %10, align 8
  %12 = tail call i32 @evbuffer_set_max_read(ptr noundef %11, i64 noundef %spec.select) #10
  %13 = load ptr, ptr %3, align 8
  %.not17 = icmp eq ptr %13, null
  br i1 %.not17, label %17, label %14

14:                                               ; preds = %8
  %15 = load ptr, ptr getelementptr inbounds nuw (i8, ptr @evthread_lock_fns_, i64 32), align 8
  %16 = tail call i32 %15(i32 noundef 0, ptr noundef nonnull %13) #10
  br label %17

17:                                               ; preds = %14, %8
  ret i32 %12
}